#include <math.h>
#include <stdio.h>
#include <stdlib.h>
#include <string.h>

int main(){
    int i,j,n,s,e;
    char a[300];
    gets(a);
    n=strlen(a);
    for (s=0;s<n;s++){
        if (a[s]==' '&&a[s+1]==' '){ 
            for (e=s+1;e<n;e++){
                if (a[e]!=' '){
                    break;
                }
            }
            for (i=s+1;i<e;i++){
                a[i]=0;
            }
            s=e;  
        }
    }
    for (i=0;i<n;i++){
        if (a[i]!=0){
            printf("%c",a[i]);
        }
    }
}

